libbliss.so.0d libbliss0d #MINVER#
 _ZN5bliss11UintSeqHash6updateEj@Base 0.50
 _ZN5bliss11fatal_errorEPKcz@Base 0.71-1
 _ZN5bliss13AbstractGraph14canonical_formERNS_5StatsEPFvPvjPKjES3_@Base 0.71-1
#MISSING: 0.71-1# _ZN5bliss13AbstractGraph14canonical_formERNS_7t_StatsEPFvPvjPKjES3_@Base 0.50
 _ZN5bliss13AbstractGraph15is_automorphismEPj@Base 0.50
 _ZN5bliss13AbstractGraph15long_prune_initEv@Base 0.50
 _ZN5bliss13AbstractGraph15long_prune_swapEjj@Base 0.50
 _ZN5bliss13AbstractGraph15update_labelingEPj@Base 0.50
 _ZN5bliss13AbstractGraph16set_verbose_fileEP8_IO_FILE@Base 0.50
 _ZN5bliss13AbstractGraph17reset_permutationEPj@Base 0.50
 _ZN5bliss13AbstractGraph17set_verbose_levelEj@Base 0.50
 _ZN5bliss13AbstractGraph18cert_add_redundantEjjj@Base 0.71-1
 _ZN5bliss13AbstractGraph18find_automorphismsERNS_5StatsEPFvPvjPKjES3_@Base 0.71-1
#MISSING: 0.71-1# _ZN5bliss13AbstractGraph18find_automorphismsERNS_7t_StatsEPFvPvjPKjES3_@Base 0.50
 _ZN5bliss13AbstractGraph19long_prune_get_mcrsEj@Base 0.50
 _ZN5bliss13AbstractGraph19refine_to_equitableEPNS_9Partition4CellE@Base 0.50
 _ZN5bliss13AbstractGraph19refine_to_equitableEPNS_9Partition4CellES3_@Base 0.50
 _ZN5bliss13AbstractGraph19refine_to_equitableEv@Base 0.50
 _ZN5bliss13AbstractGraph20long_prune_get_fixedEj@Base 0.50
 _ZN5bliss13AbstractGraph21long_prune_deallocateEv@Base 0.50
 _ZN5bliss13AbstractGraph22do_refine_to_equitableEv@Base 0.50
 _ZN5bliss13AbstractGraph24long_prune_allocget_mcrsEj@Base 0.50
 _ZN5bliss13AbstractGraph24update_orbit_informationERNS_5OrbitEPKj@Base 0.50
 _ZN5bliss13AbstractGraph25long_prune_allocget_fixedEj@Base 0.50
 _ZN5bliss13AbstractGraph25nucr_find_first_componentEj@Base 0.71-1
 _ZN5bliss13AbstractGraph25nucr_find_first_componentEjRSt6vectorIjSaIjEERjRPNS_9Partition4CellE@Base 0.71-1
 _ZN5bliss13AbstractGraph27long_prune_add_automorphismEPKj@Base 0.50
 _ZN5bliss13AbstractGraph31update_labeling_and_its_inverseEPjS1_@Base 0.50
 _ZN5bliss13AbstractGraph6searchEbRNS_5StatsE@Base 0.71-1
#MISSING: 0.71-1# _ZN5bliss13AbstractGraph6searchEbRNS_7t_StatsE@Base 0.50
 _ZN5bliss13AbstractGraph8cert_addEjjj@Base 0.71-1
 _ZN5bliss13AbstractGraphC1Ev@Base 0.50
 _ZN5bliss13AbstractGraphC2Ev@Base 0.50
 _ZN5bliss13AbstractGraphD0Ev@Base 0.50
 _ZN5bliss13AbstractGraphD1Ev@Base 0.50
 _ZN5bliss13AbstractGraphD2Ev@Base 0.50
 _ZN5bliss14is_permutationERKSt6vectorIjSaIjEE@Base 0.71-1
 _ZN5bliss14is_permutationEjPKj@Base 0.71-1
 _ZN5bliss17print_permutationEP8_IO_FILERKSt6vectorIjSaIjEEj@Base 0.71-1
 _ZN5bliss17print_permutationEP8_IO_FILEjPKjj@Base 0.50
 _ZN5bliss4Heap4initEj@Base 0.50
 _ZN5bliss4Heap6insertEj@Base 0.50
 _ZN5bliss4Heap6removeEv@Base 0.50
 _ZN5bliss4Heap6upheapEj@Base 0.50
 _ZN5bliss4Heap8downheapEj@Base 0.50
 _ZN5bliss4HeapD1Ev@Base 0.50
 _ZN5bliss4HeapD2Ev@Base 0.50
 _ZN5bliss5Graph10add_vertexEj@Base 0.50
 _ZN5bliss5Graph10sort_edgesEv@Base 0.50
 _ZN5bliss5Graph11read_dimacsEP8_IO_FILES2_@Base 0.50
 _ZN5bliss5Graph12change_colorEjj@Base 0.50
 _ZN5bliss5Graph12write_dimacsEP8_IO_FILE@Base 0.50
 _ZN5bliss5Graph15is_automorphismEPj@Base 0.50
 _ZN5bliss5Graph16degree_invariantEPKS0_j@Base 0.71-1
#MISSING: 0.71-1# _ZN5bliss5Graph16degree_invariantEPS0_j@Base 0.50
#MISSING: 0.71-1# _ZN5bliss5Graph16sh_first_largestEPNS_9Partition4CellE@Base 0.50
 _ZN5bliss5Graph16sh_first_largestEv@Base 0.71-1
#MISSING: 0.71-1# _ZN5bliss5Graph17sh_first_smallestEPNS_9Partition4CellE@Base 0.50
 _ZN5bliss5Graph17sh_first_smallestEv@Base 0.71-1
 _ZN5bliss5Graph18selfloop_invariantEPKS0_j@Base 0.71-1
#MISSING: 0.71-1# _ZN5bliss5Graph18selfloop_invariantEPS0_j@Base 0.50
 _ZN5bliss5Graph22initialize_certificateEv@Base 0.50
 _ZN5bliss5Graph22remove_duplicate_edgesEv@Base 0.50
 _ZN5bliss5Graph22vertex_color_invariantEPKS0_j@Base 0.71-1
#MISSING: 0.71-1# _ZN5bliss5Graph22vertex_color_invariantEPS0_j@Base 0.50
#MISSING: 0.71-1# _ZN5bliss5Graph23sh_first_max_neighboursEPNS_9Partition4CellE@Base 0.50
 _ZN5bliss5Graph23sh_first_max_neighboursEv@Base 0.71-1
 _ZN5bliss5Graph25nucr_find_first_componentEj@Base 0.71-1
 _ZN5bliss5Graph25nucr_find_first_componentEjRSt6vectorIjSaIjEERjRPNS_9Partition4CellE@Base 0.71-1
 _ZN5bliss5Graph27split_neighbourhood_of_cellEPNS_9Partition4CellE@Base 0.50
 _ZN5bliss5Graph29find_next_cell_to_be_splittedEPNS_9Partition4CellE@Base 0.50
 _ZN5bliss5Graph29refine_according_to_invariantEPFjPKS0_jE@Base 0.71-1
#MISSING: 0.71-1# _ZN5bliss5Graph29refine_according_to_invariantEPFjPS0_jE@Base 0.50
#MISSING: 0.71-1# _ZN5bliss5Graph31sh_first_largest_max_neighboursEPNS_9Partition4CellE@Base 0.50
 _ZN5bliss5Graph31sh_first_largest_max_neighboursEv@Base 0.71-1
 _ZN5bliss5Graph32make_initial_equitable_partitionEv@Base 0.50
#MISSING: 0.71-1# _ZN5bliss5Graph32sh_first_smallest_max_neighboursEPNS_9Partition4CellE@Base 0.50
 _ZN5bliss5Graph32sh_first_smallest_max_neighboursEv@Base 0.71-1
 _ZN5bliss5Graph32split_neighbourhood_of_unit_cellEPNS_9Partition4CellE@Base 0.50
#MISSING: 0.71-1# _ZN5bliss5Graph3cmpEPS0_@Base 0.50
 _ZN5bliss5Graph3cmpERS0_@Base 0.71-1
 _ZN5bliss5Graph6Vertex10sort_edgesEv@Base 0.50
#MISSING: 0.71-1# _ZN5bliss5Graph6Vertex22remove_duplicate_edgesEPb@Base 0.50
 _ZN5bliss5Graph6Vertex22remove_duplicate_edgesERSt6vectorIbSaIbEE@Base 0.71-1
 _ZN5bliss5Graph6Vertex8add_edgeEj@Base 0.50
 _ZN5bliss5Graph6VertexC1Ev@Base 0.50
 _ZN5bliss5Graph6VertexC2Ev@Base 0.50
 _ZN5bliss5Graph6VertexD1Ev@Base 0.50
 _ZN5bliss5Graph6VertexD2Ev@Base 0.50
 _ZN5bliss5Graph8add_edgeEjj@Base 0.50
 _ZN5bliss5Graph8get_hashEv@Base 0.50
#MISSING: 0.71-1# _ZN5bliss5Graph8sh_firstEPNS_9Partition4CellE@Base 0.50
 _ZN5bliss5Graph8sh_firstEv@Base 0.71-1
 _ZN5bliss5Graph9write_dotEP8_IO_FILE@Base 0.50
 _ZN5bliss5Graph9write_dotEPKc@Base 0.50
 _ZN5bliss5GraphC1Ej@Base 0.50
 _ZN5bliss5GraphC2Ej@Base 0.50
 _ZN5bliss5GraphD0Ev@Base 0.50
 _ZN5bliss5GraphD1Ev@Base 0.50
 _ZN5bliss5GraphD2Ev@Base 0.50
 _ZN5bliss5Orbit12merge_orbitsEPNS0_10OrbitEntryES2_@Base 0.50
 _ZN5bliss5Orbit12merge_orbitsEjj@Base 0.50
 _ZN5bliss5Orbit4initEj@Base 0.50
 _ZN5bliss5Orbit5resetEv@Base 0.50
 _ZN5bliss5OrbitC1Ev@Base 0.50
 _ZN5bliss5OrbitC2Ev@Base 0.50
 _ZN5bliss5OrbitD1Ev@Base 0.50
 _ZN5bliss5OrbitD2Ev@Base 0.50
 _ZN5bliss5Timer12get_durationEv@Base 0.50
 _ZN5bliss5Timer5resetEv@Base 0.50
 _ZN5bliss5TimerC1Ev@Base 0.50
 _ZN5bliss5TimerC2Ev@Base 0.50
 _ZN5bliss7Digraph10add_vertexEj@Base 0.50
 _ZN5bliss7Digraph10sort_edgesEv@Base 0.50
 _ZN5bliss7Digraph11read_dimacsEP8_IO_FILES2_@Base 0.50
 _ZN5bliss7Digraph12change_colorEjj@Base 0.50
 _ZN5bliss7Digraph12write_dimacsEP8_IO_FILE@Base 0.50
 _ZN5bliss7Digraph15is_automorphismEPj@Base 0.50
#MISSING: 0.71-1# _ZN5bliss7Digraph16sh_first_largestEPNS_9Partition4CellE@Base 0.50
 _ZN5bliss7Digraph16sh_first_largestEv@Base 0.71-1
#MISSING: 0.71-1# _ZN5bliss7Digraph17sh_first_smallestEPNS_9Partition4CellE@Base 0.50
 _ZN5bliss7Digraph17sh_first_smallestEv@Base 0.71-1
 _ZN5bliss7Digraph18indegree_invariantEPKS0_j@Base 0.71-1
#MISSING: 0.71-1# _ZN5bliss7Digraph18indegree_invariantEPS0_j@Base 0.50
 _ZN5bliss7Digraph18selfloop_invariantEPKS0_j@Base 0.71-1
#MISSING: 0.71-1# _ZN5bliss7Digraph18selfloop_invariantEPS0_j@Base 0.50
 _ZN5bliss7Digraph19outdegree_invariantEPKS0_j@Base 0.71-1
#MISSING: 0.71-1# _ZN5bliss7Digraph19outdegree_invariantEPS0_j@Base 0.50
 _ZN5bliss7Digraph22initialize_certificateEv@Base 0.50
 _ZN5bliss7Digraph22remove_duplicate_edgesEv@Base 0.50
 _ZN5bliss7Digraph22vertex_color_invariantEPKS0_j@Base 0.71-1
#MISSING: 0.71-1# _ZN5bliss7Digraph22vertex_color_invariantEPS0_j@Base 0.50
#MISSING: 0.71-1# _ZN5bliss7Digraph23sh_first_max_neighboursEPNS_9Partition4CellE@Base 0.50
 _ZN5bliss7Digraph23sh_first_max_neighboursEv@Base 0.71-1
 _ZN5bliss7Digraph25nucr_find_first_componentEj@Base 0.71-1
 _ZN5bliss7Digraph25nucr_find_first_componentEjRSt6vectorIjSaIjEERjRPNS_9Partition4CellE@Base 0.71-1
 _ZN5bliss7Digraph27split_neighbourhood_of_cellEPNS_9Partition4CellE@Base 0.50
 _ZN5bliss7Digraph29find_next_cell_to_be_splittedEPNS_9Partition4CellE@Base 0.50
 _ZN5bliss7Digraph29refine_according_to_invariantEPFjPKS0_jE@Base 0.71-1
#MISSING: 0.71-1# _ZN5bliss7Digraph29refine_according_to_invariantEPFjPS0_jE@Base 0.50
#MISSING: 0.71-1# _ZN5bliss7Digraph31sh_first_largest_max_neighboursEPNS_9Partition4CellE@Base 0.50
 _ZN5bliss7Digraph31sh_first_largest_max_neighboursEv@Base 0.71-1
 _ZN5bliss7Digraph32make_initial_equitable_partitionEv@Base 0.50
#MISSING: 0.71-1# _ZN5bliss7Digraph32sh_first_smallest_max_neighboursEPNS_9Partition4CellE@Base 0.50
 _ZN5bliss7Digraph32sh_first_smallest_max_neighboursEv@Base 0.71-1
 _ZN5bliss7Digraph32split_neighbourhood_of_unit_cellEPNS_9Partition4CellE@Base 0.50
 _ZN5bliss7Digraph3cmpERS0_@Base 0.71-1
 _ZN5bliss7Digraph6Vertex10sort_edgesEv@Base 0.50
 _ZN5bliss7Digraph6Vertex11add_edge_toEj@Base 0.50
 _ZN5bliss7Digraph6Vertex13add_edge_fromEj@Base 0.50
#MISSING: 0.71-1# _ZN5bliss7Digraph6Vertex22remove_duplicate_edgesEPb@Base 0.50
 _ZN5bliss7Digraph6Vertex22remove_duplicate_edgesERSt6vectorIbSaIbEE@Base 0.71-1
 _ZN5bliss7Digraph6VertexC1Ev@Base 0.50
 _ZN5bliss7Digraph6VertexC2Ev@Base 0.50
 _ZN5bliss7Digraph6VertexD1Ev@Base 0.50
 _ZN5bliss7Digraph6VertexD2Ev@Base 0.50
 _ZN5bliss7Digraph8add_edgeEjj@Base 0.50
 _ZN5bliss7Digraph8get_hashEv@Base 0.50
#MISSING: 0.71-1# _ZN5bliss7Digraph8sh_firstEPNS_9Partition4CellE@Base 0.50
 _ZN5bliss7Digraph8sh_firstEv@Base 0.71-1
 _ZN5bliss7Digraph9write_dotEP8_IO_FILE@Base 0.50
 _ZN5bliss7Digraph9write_dotEPKc@Base 0.50
 _ZN5bliss7DigraphC1Ej@Base 0.50
 _ZN5bliss7DigraphC2Ej@Base 0.50
 _ZN5bliss7DigraphD0Ev@Base 0.50
 _ZN5bliss7DigraphD1Ev@Base 0.50
 _ZN5bliss7DigraphD2Ev@Base 0.50
 _ZN5bliss9Partition10split_cellEPNS0_4CellE@Base 0.50
 _ZN5bliss9Partition10zplit_cellEPNS0_4CellEb@Base 0.50
 _ZN5bliss9Partition13individualizeEPNS0_4CellEj@Base 0.50
 _ZN5bliss9Partition14cr_split_levelEjRKSt6vectorIjSaIjEE@Base 0.71-1
 _ZN5bliss9Partition14shellsort_cellEPNS0_4CellE@Base 0.50
#MISSING: 0.71-1# _ZN5bliss9Partition15print_signatureEP8_IO_FILE@Base 0.50
 _ZN5bliss9Partition16aux_split_in_twoEPNS0_4CellEj@Base 0.50
#MISSING: 0.71-1# _ZN5bliss9Partition17consistency_checkEv@Base 0.50
 _ZN5bliss9Partition18cr_create_at_levelEjj@Base 0.71-1
 _ZN5bliss9Partition18dcs_cumulate_countEj@Base 0.50
 _ZN5bliss9Partition19set_backtrack_pointEv@Base 0.50
 _ZN5bliss9Partition19splitting_queue_addEPNS0_4CellE@Base 0.71-1
 _ZN5bliss9Partition20goto_backtrack_pointEj@Base 0.50
 _ZN5bliss9Partition20sort_and_split_cell1EPNS0_4CellE@Base 0.50
#MISSING: 0.71-1# _ZN5bliss9Partition21clear_splitting_queueEv@Base 0.50
 _ZN5bliss9Partition21splitting_queue_clearEv@Base 0.71-1
#MISSING: 0.71-1# _ZN5bliss9Partition22add_in_splitting_queueEPNS0_4CellE@Base 0.50
 _ZN5bliss9Partition22cr_get_backtrack_pointEv@Base 0.71-1
 _ZN5bliss9Partition22sort_and_split_cell255EPNS0_4CellEj@Base 0.50
 _ZN5bliss9Partition23cr_goto_backtrack_pointEj@Base 0.71-1
 _ZN5bliss9Partition26cr_create_at_level_trailedEjj@Base 0.71-1
 _ZN5bliss9Partition4initEj@Base 0.50
#MISSING: 0.71-1# _ZN5bliss9Partition5printEP8_IO_FILE@Base 0.50
 _ZN5bliss9Partition7cr_freeEv@Base 0.71-1
 _ZN5bliss9Partition7cr_initEv@Base 0.71-1
 _ZN5bliss9Partition9clear_ivsEPNS0_4CellE@Base 0.50
 _ZN5bliss9PartitionC1Ev@Base 0.50
 _ZN5bliss9PartitionC2Ev@Base 0.50
 _ZN5bliss9PartitionD1Ev@Base 0.50
 _ZN5bliss9PartitionD2Ev@Base 0.50
 _ZNK5bliss13AbstractGraph15is_automorphismERKSt6vectorIjSaIjEE@Base 0.71-1
 _ZNK5bliss5Graph12is_equitableEv@Base 0.50
 _ZNK5bliss5Graph15is_automorphismERKSt6vectorIjSaIjEE@Base 0.71-1
 _ZNK5bliss5Graph16get_nof_verticesEv@Base 0.50
 _ZNK5bliss5Graph7permuteEPKj@Base 0.50
 _ZNK5bliss5Graph7permuteERKSt6vectorIjSaIjEE@Base 0.71-1
 _ZNK5bliss5Orbit10orbit_sizeEj@Base 0.50
 _ZNK5bliss5Orbit25is_minimal_representativeEj@Base 0.50
 _ZNK5bliss5Orbit26get_minimal_representativeEj@Base 0.50
 _ZNK5bliss7Digraph12is_equitableEv@Base 0.50
 _ZNK5bliss7Digraph15is_automorphismERKSt6vectorIjSaIjEE@Base 0.71-1
 _ZNK5bliss7Digraph16get_nof_verticesEv@Base 0.50
 _ZNK5bliss7Digraph7permuteEPKj@Base 0.50
 _ZNK5bliss7Digraph7permuteERKSt6vectorIjSaIjEE@Base 0.71-1
 _ZNK5bliss9Partition15print_signatureEP8_IO_FILEb@Base 0.71-1
 _ZNK5bliss9Partition5printEP8_IO_FILEb@Base 0.71-1
#MISSING: 0.71-1# _ZNKSt13_Bit_iteratorplEl@Base 0.50
#MISSING: 0.71-1# _ZNKSt6vectorIN5bliss9LevelInfoESaIS1_EE12_M_check_lenEmPKc@Base 0.50
#MISSING: 0.71-1# _ZNKSt6vectorIjSaIjEE12_M_check_lenEmPKc@Base 0.50
#MISSING: 0.71-1# _ZNSt11__copy_moveILb0ELb1ESt26random_access_iterator_tagE8__copy_mIjEEPT_PKS3_S6_S4_@Base 0.50
 _ZNSt3setIjSt4lessIjESaIjEED1Ev@Base 0.50
 _ZNSt3setIjSt4lessIjESaIjEED2Ev@Base 0.71-1
 _ZNSt6vectorIN5bliss13AbstractGraph6CR_CEPESaIS2_EE13_M_insert_auxEN9__gnu_cxx17__normal_iteratorIPS2_S4_EERKS2_@Base 0.71-1
 _ZNSt6vectorIN5bliss13AbstractGraph6CR_CEPESaIS2_EE14_M_fill_insertEN9__gnu_cxx17__normal_iteratorIPS2_S4_EEmRKS2_@Base 0.71-1
#MISSING: 0.71-1# _ZNSt6vectorIN5bliss5Graph6VertexESaIS2_EE14_M_fill_insertEN9__gnu_cxx17__normal_iteratorIPS2_S4_EEmRKS2_@Base 0.50
#MISSING: 0.71-1# _ZNSt6vectorIN5bliss5Graph6VertexESaIS2_EED1Ev@Base 0.50
#MISSING: 0.71-1# _ZNSt6vectorIN5bliss7Digraph6VertexESaIS2_EE14_M_fill_insertEN9__gnu_cxx17__normal_iteratorIPS2_S4_EEmRKS2_@Base 0.50
#MISSING: 0.71-1# _ZNSt6vectorIN5bliss7Digraph6VertexESaIS2_EED1Ev@Base 0.50
#MISSING: 0.71-1# _ZNSt6vectorIN5bliss8PathInfoESaIS1_EE13_M_insert_auxEN9__gnu_cxx17__normal_iteratorIPS1_S3_EERKS1_@Base 0.50
 _ZNSt6vectorIN5bliss8TreeNodeESaIS1_EE14_M_fill_insertEN9__gnu_cxx17__normal_iteratorIPS1_S3_EEmRKS1_@Base 0.71-1
#MISSING: 0.71-1# _ZNSt6vectorIN5bliss9LevelInfoESaIS1_EE13_M_insert_auxEN9__gnu_cxx17__normal_iteratorIPS1_S3_EERKS1_@Base 0.50
#MISSING: 0.71-1# _ZNSt6vectorIN5bliss9LevelInfoESaIS1_EE14_M_fill_insertEN9__gnu_cxx17__normal_iteratorIPS1_S3_EEmRKS1_@Base 0.50
#MISSING: 0.71-1# _ZNSt6vectorIN5bliss9LevelInfoESaIS1_EED1Ev@Base 0.50
#MISSING: 0.71-1# _ZNSt6vectorIN5bliss9Partition13BacktrackInfoESaIS2_EE13_M_insert_auxEN9__gnu_cxx17__normal_iteratorIPS2_S4_EERKS2_@Base 0.50
#MISSING: 0.71-1# _ZNSt6vectorIN5bliss9Partition13BacktrackInfoESaIS2_EE14_M_fill_insertEN9__gnu_cxx17__normal_iteratorIPS2_S4_EEmRKS2_@Base 0.50
 _ZNSt6vectorIPN5bliss9Partition4CellESaIS3_EE13_M_insert_auxEN9__gnu_cxx17__normal_iteratorIPS3_S5_EERKS3_@Base 0.71-1
 _ZNSt6vectorIPN5bliss9Partition4CellESaIS3_EED1Ev@Base 0.71-1
 _ZNSt6vectorIPN5bliss9Partition4CellESaIS3_EED2Ev@Base 0.71-1
 _ZNSt6vectorIPS_IbSaIbEESaIS2_EE14_M_fill_insertEN9__gnu_cxx17__normal_iteratorIPS2_S4_EEmRKS2_@Base 0.50
 _ZNSt6vectorIPS_IbSaIbEESaIS2_EED1Ev@Base 0.50
 _ZNSt6vectorIPS_IbSaIbEESaIS2_EED2Ev@Base 0.71-1
 _ZNSt6vectorISt3setIjSt4lessIjESaIjEESaIS4_EE14_M_fill_insertEN9__gnu_cxx17__normal_iteratorIPS4_S6_EEmRKS4_@Base 0.71-1
 _ZNSt6vectorIbSaIbEE14_M_fill_insertESt13_Bit_iteratormb@Base 0.71-1
#MISSING: 0.71-1# _ZNSt6vectorIbSaIbEEC1EmRKbRKS0_@Base 0.50
 _ZNSt6vectorIbSaIbEED1Ev@Base 0.71-1
 _ZNSt6vectorIbSaIbEED2Ev@Base 0.71-1
 _ZNSt6vectorIjSaIjEE13_M_insert_auxEN9__gnu_cxx17__normal_iteratorIPjS1_EERKj@Base 0.50
 _ZNSt6vectorIjSaIjEE14_M_fill_insertEN9__gnu_cxx17__normal_iteratorIPjS1_EEmRKj@Base 0.50
#MISSING: 0.71-1# _ZNSt6vectorIjSaIjEED1Ev@Base 0.50
 _ZNSt6vectorIjSaIjEEaSERKS1_@Base 0.50
 _ZNSt8_Rb_treeIjjSt9_IdentityIjESt4lessIjESaIjEE16_M_insert_uniqueERKj@Base 0.71-1
 _ZNSt8_Rb_treeIjjSt9_IdentityIjESt4lessIjESaIjEE7_M_copyEPKSt13_Rb_tree_nodeIjEPS7_@Base 0.50
 _ZNSt8_Rb_treeIjjSt9_IdentityIjESt4lessIjESaIjEE8_M_eraseEPSt13_Rb_tree_nodeIjE@Base 0.50
 _ZNSt8_Rb_treeIjjSt9_IdentityIjESt4lessIjESaIjEEaSERKS5_@Base 0.71-1
 _ZSt13__adjust_heapIN9__gnu_cxx17__normal_iteratorIPjSt6vectorIjSaIjEEEEljEvT_T0_S8_T1_@Base 0.50
 _ZSt16__insertion_sortIN9__gnu_cxx17__normal_iteratorIPjSt6vectorIjSaIjEEEEEvT_S7_@Base 0.71-1
 _ZSt16__introsort_loopIN9__gnu_cxx17__normal_iteratorIPjSt6vectorIjSaIjEEEElEvT_S7_T0_@Base 0.50
 _ZSt19__move_median_firstIN9__gnu_cxx17__normal_iteratorIPjSt6vectorIjSaIjEEEEEvT_S7_S7_@Base 0.71-1
#MISSING: 0.71-1# _ZSt22__uninitialized_move_aIPN5bliss5Graph6VertexES3_SaIS2_EET0_T_S6_S5_RT1_@Base 0.50
#MISSING: 0.71-1# _ZSt22__uninitialized_move_aIPN5bliss7Digraph6VertexES3_SaIS2_EET0_T_S6_S5_RT1_@Base 0.50
#MISSING: 0.71-1# _ZSt22__uninitialized_move_aIPN5bliss9LevelInfoES2_SaIS1_EET0_T_S5_S4_RT1_@Base 0.50
#MISSING: 0.71-1# _ZSt22__uninitialized_move_aIPN5bliss9Partition13BacktrackInfoES3_SaIS2_EET0_T_S6_S5_RT1_@Base 0.50
#MISSING: 0.71-1# _ZSt24__uninitialized_fill_n_aIPN5bliss5Graph6VertexEmS2_S2_EvT_T0_RKT1_RSaIT2_E@Base 0.50
#MISSING: 0.71-1# _ZSt24__uninitialized_fill_n_aIPN5bliss7Digraph6VertexEmS2_S2_EvT_T0_RKT1_RSaIT2_E@Base 0.50
#MISSING: 0.71-1# _ZSt4fillSt13_Bit_iteratorS_RKb@Base 0.50
 _ZSt8_DestroyIPN5bliss8TreeNodeEEvT_S3_@Base 0.71-1
 _ZTIN5bliss13AbstractGraphE@Base 0.50
 _ZTIN5bliss5GraphE@Base 0.50
 _ZTIN5bliss7DigraphE@Base 0.50
 _ZTSN5bliss13AbstractGraphE@Base 0.50
 _ZTSN5bliss5GraphE@Base 0.50
 _ZTSN5bliss7DigraphE@Base 0.50
 _ZTVN5bliss13AbstractGraphE@Base 0.50
 _ZTVN5bliss5GraphE@Base 0.50
 _ZTVN5bliss7DigraphE@Base 0.50
 bliss_add_edge@Base 0.50
 bliss_add_vertex@Base 0.50
 bliss_cmp@Base 0.50
 bliss_find_automorphisms@Base 0.50
 bliss_find_canonical_labeling@Base 0.50
 bliss_get_nof_vertices@Base 0.50
 bliss_hash@Base 0.50
 bliss_new@Base 0.50
 bliss_permute@Base 0.50
 bliss_read_dimacs@Base 0.50
 bliss_release@Base 0.50
 bliss_write_dimacs@Base 0.50
 bliss_write_dot@Base 0.50
